target datalayout = "e-m:e-p270:32:32-p271:32:32-p272:64:64-i64:64-i128:128-f80:128-n8:16:32:64-S128"
target triple = "x86_64-pc-linux-gnu"

%union.pthread_mutex_t = type { %struct.__pthread_mutex_s }
%struct.__pthread_mutex_s = type { i32, i32, i32, i32, i32, i16, i16, %struct.__pthread_internal_list }
%struct.__pthread_internal_list = type { ptr, ptr }

@_ZZL24perf_context_switch_ratePdE17contextSwitchLock = internal global %union.pthread_mutex_t zeroinitializer, align 8
@_ZZL24perf_context_switch_ratePdE8bootTime = internal global i64 0, align 8
@_ZZL24perf_context_switch_ratePdE13lastTimeNanos = internal global i64 0, align 8
@_ZZL24perf_context_switch_ratePdE12lastSwitches = internal global i64 0, align 8
@_ZZL24perf_context_switch_ratePdE8lastRate = internal global double 0.000000e+00, align 8
@.str.15 = private unnamed_addr constant [11 x i8] c"btime %lu\0A\00", align 1
@.str.17 = private unnamed_addr constant [10 x i8] c"ctxt %lu\0A\00", align 1

; Function Attrs: mustprogress nounwind uwtable
define internal noundef i32 @_ZL25get_noof_context_switchesPm(ptr noundef %0) #1 {
  %2 = alloca ptr, align 8
  store ptr %0, ptr %2, align 8
  %3 = load ptr, ptr %2, align 8
  %4 = call noundef i32 (ptr, ...) @_ZL10parse_statPKcz(ptr noundef @.str.17, ptr noundef %3)
  ret i32 %4
}

; Function Attrs: mustprogress nounwind uwtable
define linkonce_odr hidden noundef i64 @_Z15nanos_to_millisl(i64 noundef %0) #1 comdat {
  %2 = alloca i64, align 8
  store i64 %0, ptr %2, align 8
  %3 = load i64, ptr %2, align 8
  %4 = sdiv i64 %3, 1000000
  ret i64 %4
}

; Function Attrs: mustprogress nounwind uwtable
define internal noundef i32 @_ZL13get_boot_timePm(ptr noundef %0) #1 {
  %2 = alloca ptr, align 8
  store ptr %0, ptr %2, align 8
  %3 = load ptr, ptr %2, align 8
  %4 = call noundef i32 (ptr, ...) @_ZL10parse_statPKcz(ptr noundef @.str.15, ptr noundef %3)
  ret i32 %4
}

; Function Attrs: mustprogress nounwind uwtable
define internal noundef i32 @_ZL24perf_context_switch_ratePd(ptr noundef %0) #1 {
  %2 = alloca i32, align 4
  %3 = alloca ptr, align 8
  %4 = alloca i64, align 8
  %5 = alloca i32, align 4
  %6 = alloca i64, align 8
  %7 = alloca i64, align 8
  %8 = alloca i64, align 8
  %9 = alloca i64, align 8
  store ptr %0, ptr %3, align 8
  store i64 0, ptr %4, align 8
  store i32 0, ptr %5, align 4
  %10 = load i64, ptr @_ZZL24perf_context_switch_ratePdE8bootTime, align 8
  %11 = icmp eq i64 %10, 0
  br i1 %11, label %12, label %19

12:                                               ; preds = %1
  %13 = call noundef i32 @_ZL13get_boot_timePm(ptr noundef %6)
  %14 = icmp slt i32 %13, 0
  br i1 %14, label %15, label %16

15:                                               ; preds = %12
  store i32 -1, ptr %2, align 4
  br label %79

16:                                               ; preds = %12
  %17 = load i64, ptr %6, align 8
  %18 = mul i64 %17, 1000
  store i64 %18, ptr %4, align 8
  br label %19

19:                                               ; preds = %16, %1
  store i32 0, ptr %5, align 4
  %20 = call i32 @pthread_mutex_lock(ptr noundef @_ZZL24perf_context_switch_ratePdE17contextSwitchLock) #8
  %21 = load i64, ptr @_ZZL24perf_context_switch_ratePdE8bootTime, align 8
  %22 = icmp eq i64 %21, 0
  br i1 %22, label %23, label %29

23:                                               ; preds = %19
  %24 = call noundef i64 @_ZN2os13javaTimeNanosEv()
  store i64 %24, ptr @_ZZL24perf_context_switch_ratePdE13lastTimeNanos, align 8
  %25 = call noundef i64 @_ZN2os14javaTimeMillisEv()
  store i64 %25, ptr %8, align 8
  %26 = load i64, ptr %8, align 8
  %27 = load i64, ptr %4, align 8
  %28 = sub i64 %26, %27
  store i64 %28, ptr %9, align 8
  br label %35

29:                                               ; preds = %19
  %30 = call noundef i64 @_ZN2os13javaTimeNanosEv()
  store i64 %30, ptr %8, align 8
  %31 = load i64, ptr %8, align 8
  %32 = load i64, ptr @_ZZL24perf_context_switch_ratePdE13lastTimeNanos, align 8
  %33 = sub i64 %31, %32
  %34 = call noundef i64 @_Z15nanos_to_millisl(i64 noundef %33)
  store i64 %34, ptr %9, align 8
  br label %35

35:                                               ; preds = %29, %23
  %36 = load i64, ptr %9, align 8
  %37 = icmp eq i64 %36, 0
  br i1 %37, label %38, label %41

38:                                               ; preds = %35
  %39 = load double, ptr @_ZZL24perf_context_switch_ratePdE8lastRate, align 8
  %40 = load ptr, ptr %3, align 8
  store double %39, ptr %40, align 8
  br label %65

41:                                               ; preds = %35
  %42 = call noundef i32 @_ZL25get_noof_context_switchesPm(ptr noundef %7)
  %43 = icmp eq i32 %42, 0
  br i1 %43, label %44, label %62

44:                                               ; preds = %41
  %45 = load i64, ptr %7, align 8
  %46 = load i64, ptr @_ZZL24perf_context_switch_ratePdE12lastSwitches, align 8
  %47 = sub i64 %45, %46
  %48 = uitofp i64 %47 to double
  %49 = load i64, ptr %9, align 8
  %50 = sitofp i64 %49 to double
  %51 = fdiv double %48, %50
  %52 = fmul double %51, 1.000000e+03
  %53 = load ptr, ptr %3, align 8
  store double %52, ptr %53, align 8
  %54 = load ptr, ptr %3, align 8
  %55 = load double, ptr %54, align 8
  store double %55, ptr @_ZZL24perf_context_switch_ratePdE8lastRate, align 8
  %56 = load i64, ptr %7, align 8
  store i64 %56, ptr @_ZZL24perf_context_switch_ratePdE12lastSwitches, align 8
  %57 = load i64, ptr @_ZZL24perf_context_switch_ratePdE8bootTime, align 8
  %58 = icmp ne i64 %57, 0
  br i1 %58, label %59, label %61

59:                                               ; preds = %44
  %60 = load i64, ptr %8, align 8
  store i64 %60, ptr @_ZZL24perf_context_switch_ratePdE13lastTimeNanos, align 8
  br label %61

61:                                               ; preds = %59, %44
  br label %64

62:                                               ; preds = %41
  %63 = load ptr, ptr %3, align 8
  store double 0.000000e+00, ptr %63, align 8
  store i32 -1, ptr %5, align 4
  br label %64

64:                                               ; preds = %62, %61
  br label %65

65:                                               ; preds = %64, %38
  %66 = load ptr, ptr %3, align 8
  %67 = load double, ptr %66, align 8
  %68 = fcmp ole double %67, 0.000000e+00
  br i1 %68, label %69, label %71

69:                                               ; preds = %65
  %70 = load ptr, ptr %3, align 8
  store double 0.000000e+00, ptr %70, align 8
  store double 0.000000e+00, ptr @_ZZL24perf_context_switch_ratePdE8lastRate, align 8
  br label %71

71:                                               ; preds = %69, %65
  %72 = load i64, ptr @_ZZL24perf_context_switch_ratePdE8bootTime, align 8
  %73 = icmp eq i64 %72, 0
  br i1 %73, label %74, label %76

74:                                               ; preds = %71
  %75 = load i64, ptr %4, align 8
  store i64 %75, ptr @_ZZL24perf_context_switch_ratePdE8bootTime, align 8
  br label %76

76:                                               ; preds = %74, %71
  %77 = call i32 @pthread_mutex_unlock(ptr noundef @_ZZL24perf_context_switch_ratePdE17contextSwitchLock) #8
  %78 = load i32, ptr %5, align 4
  store i32 %78, ptr %2, align 4
  br label %79

79:                                               ; preds = %76, %15
  %80 = load i32, ptr %2, align 4
  ret i32 %80
}