; Function Attrs: mustprogress nounwind uwtable
define internal fastcc noundef range(i32 -1, 1) i32 @_ZL24perf_context_switch_ratePd(ptr nocapture noundef writeonly %0) unnamed_addr #0 {
  %2 = alloca i64, align 8
  %3 = alloca i64, align 8
  %4 = load i64, ptr @_ZZL24perf_context_switch_ratePdE8bootTime, align 8
  %5 = icmp eq i64 %4, 0
  br i1 %5, label %6, label %12

6:                                                ; preds = %1
  %7 = call noundef range(i32 -1, 1) i32 (ptr, ...) @_ZL10parse_statPKcz(ptr noundef nonnull @.str.15, ptr noundef nonnull %2)
  %8 = icmp slt i32 %7, 0
  br i1 %8, label %50, label %9

9:                                                ; preds = %6
  %10 = load i64, ptr %2, align 8
  %11 = mul i64 %10, 1000
  br label %12

12:                                               ; preds = %9, %1
  %.016 = phi i64 [ %11, %9 ], [ 0, %1 ]
  %13 = call i32 @pthread_mutex_lock(ptr noundef nonnull @_ZZL24perf_context_switch_ratePdE17contextSwitchLock) #18
  %14 = load i64, ptr @_ZZL24perf_context_switch_ratePdE8bootTime, align 8
  %15 = icmp eq i64 %14, 0
  %16 = call noundef i64 @_ZN2os13javaTimeNanosEv() #18
  br i1 %15, label %17, label %20

17:                                               ; preds = %12
  store i64 %16, ptr @_ZZL24perf_context_switch_ratePdE13lastTimeNanos, align 8
  %18 = call noundef i64 @_ZN2os14javaTimeMillisEv() #18
  %19 = sub i64 %18, %.016
  br label %24

20:                                               ; preds = %12
  %21 = load i64, ptr @_ZZL24perf_context_switch_ratePdE13lastTimeNanos, align 8
  %22 = sub i64 %16, %21
  %23 = sdiv i64 %22, 1000000
  br label %24

24:                                               ; preds = %20, %17
  %.014 = phi i64 [ %18, %17 ], [ %16, %20 ]
  %.0 = phi i64 [ %19, %17 ], [ %23, %20 ]
  %25 = icmp eq i64 %.0, 0
  br i1 %25, label %26, label %28

26:                                               ; preds = %24
  %27 = load double, ptr @_ZZL24perf_context_switch_ratePdE8lastRate, align 8
  store double %27, ptr %0, align 8
  br label %41

28:                                               ; preds = %24
  %29 = call noundef range(i32 -1, 1) i32 (ptr, ...) @_ZL10parse_statPKcz(ptr noundef nonnull @.str.17, ptr noundef nonnull %3)
  %30 = icmp eq i32 %29, 0
  br i1 %30, label %31, label %.thread

31:                                               ; preds = %28
  %32 = load i64, ptr %3, align 8
  %33 = load i64, ptr @_ZZL24perf_context_switch_ratePdE12lastSwitches, align 8
  %34 = sub i64 %32, %33
  %35 = uitofp i64 %34 to double
  %36 = sitofp i64 %.0 to double
  %37 = fdiv double %35, %36
  %38 = fmul double %37, 1.000000e+03
  store double %38, ptr %0, align 8
  store double %38, ptr @_ZZL24perf_context_switch_ratePdE8lastRate, align 8
  store i64 %32, ptr @_ZZL24perf_context_switch_ratePdE12lastSwitches, align 8
  %39 = load i64, ptr @_ZZL24perf_context_switch_ratePdE8bootTime, align 8
  %.not = icmp eq i64 %39, 0
  br i1 %.not, label %41, label %40

40:                                               ; preds = %31
  store i64 %.014, ptr @_ZZL24perf_context_switch_ratePdE13lastTimeNanos, align 8
  br label %41

41:                                               ; preds = %40, %31, %26
  %42 = phi double [ %38, %40 ], [ %38, %31 ], [ %27, %26 ]
  %43 = fcmp ugt double %42, 0.000000e+00
  br i1 %43, label %44, label %.thread

.thread:                                          ; preds = %28, %41
  %.01519 = phi i32 [ 0, %41 ], [ -1, %28 ]
  store double 0.000000e+00, ptr %0, align 8
  store double 0.000000e+00, ptr @_ZZL24perf_context_switch_ratePdE8lastRate, align 8
  br label %44

44:                                               ; preds = %.thread, %41
  %.01520 = phi i32 [ %.01519, %.thread ], [ 0, %41 ]
  %45 = load i64, ptr @_ZZL24perf_context_switch_ratePdE8bootTime, align 8
  %46 = icmp eq i64 %45, 0
  br i1 %46, label %47, label %48

47:                                               ; preds = %44
  store i64 %.016, ptr @_ZZL24perf_context_switch_ratePdE8bootTime, align 8
  br label %48

48:                                               ; preds = %47, %44
  %49 = call i32 @pthread_mutex_unlock(ptr noundef nonnull @_ZZL24perf_context_switch_ratePdE17contextSwitchLock) #18
  br label %50

50:                                               ; preds = %6, %48
  %.017 = phi i32 [ %.01520, %48 ], [ -1, %6 ]
  ret i32 %.017
}